target datalayout = "e-m:e-p270:32:32-p271:32:32-p272:64:64-i64:64-i128:128-f80:128-n8:16:32:64-S128"
target triple = "x86_64-pc-linux-gnu"

%struct.CVodeMemRec = type { double, ptr, ptr, i32, i32, i32, double, double, ptr, i32, ptr, ptr, i32, ptr, i32, i32, double, double, ptr, i32, i32, i32, ptr, ptr, ptr, i32, i32, ptr, ptr, ptr, i32, double, i32, i32, double, ptr, ptr, i32, ptr, ptr, i32, i32, i32, double, ptr, ptr, [13 x ptr], ptr, ptr, ptr, ptr, ptr, [13 x ptr], ptr, ptr, ptr, ptr, [13 x ptr], ptr, ptr, ptr, ptr, ptr, i32, [13 x ptr], ptr, ptr, ptr, ptr, ptr, i32, double, i32, i32, i32, i32, i32, double, double, double, double, double, double, double, double, [14 x double], [6 x double], [13 x double], double, double, double, double, double, double, double, double, double, double, double, i32, ptr, i32, i64, i32, i32, i32, i32, i32, double, double, double, i64, i64, i64, i64, i64, i64, i64, i64, i64, ptr, i64, i64, ptr, i64, i64, i64, i64, i64, i64, i32, i64, i64, i64, i64, i64, i64, double, double, double, ptr, ptr, ptr, ptr, ptr, i32, i32, i64, double, double, double, i32, double, i32, i32, i32, i32, i32, i32, i32, i32, i32, i32, i32, i32, i32, i32, i32, i32, ptr, ptr, ptr, i32, [6 x [4 x double]], i32, i64, ptr, i32, ptr, ptr, double, double, double, ptr, ptr, ptr, double, double, i32, i32, i64, ptr, i32, i32, ptr, i32 }
%struct.CVadjMemRec = type { double, double, i32, i32, double, ptr, i32, ptr, i32, ptr, i32, ptr, i64, ptr, i64, i32, ptr, ptr, ptr, ptr, i32, i32, i32, i32, [13 x ptr], [13 x ptr], [13 x double], ptr, ptr, i64 }
%struct.CVodeBMemRec = type { i32, double, ptr, i32, i32, ptr, ptr, ptr, ptr, ptr, ptr, ptr, ptr, ptr, double, ptr, ptr }

; Function Attrs: nounwind uwtable
define internal void @CVAbckpbDelete(ptr noundef %0) #0 {
  %2 = alloca ptr, align 8
  %3 = alloca ptr, align 8
  %4 = alloca ptr, align 8
  store ptr %0, ptr %2, align 8, !tbaa !130
  call void @llvm.lifetime.start.p0(i64 8, ptr %3) #5
  call void @llvm.lifetime.start.p0(i64 8, ptr %4) #5
  %5 = load ptr, ptr %2, align 8, !tbaa !130
  %6 = load ptr, ptr %5, align 8, !tbaa !132
  %7 = icmp ne ptr %6, null
  br i1 %7, label %8, label %43

8:                                                ; preds = %1
  %9 = load ptr, ptr %2, align 8, !tbaa !130
  %10 = load ptr, ptr %9, align 8, !tbaa !132
  store ptr %10, ptr %3, align 8, !tbaa !132
  %11 = load ptr, ptr %2, align 8, !tbaa !130
  %12 = load ptr, ptr %11, align 8, !tbaa !132
  %13 = getelementptr inbounds nuw %struct.CVodeBMemRec, ptr %12, i32 0, i32 16
  %14 = load ptr, ptr %13, align 8, !tbaa !133
  %15 = load ptr, ptr %2, align 8, !tbaa !130
  store ptr %14, ptr %15, align 8, !tbaa !132
  %16 = load ptr, ptr %3, align 8, !tbaa !132
  %17 = getelementptr inbounds nuw %struct.CVodeBMemRec, ptr %16, i32 0, i32 2
  %18 = load ptr, ptr %17, align 8, !tbaa !135
  store ptr %18, ptr %4, align 8, !tbaa !3
  call void @CVodeFree(ptr noundef %4)
  %19 = load ptr, ptr %3, align 8, !tbaa !132
  %20 = getelementptr inbounds nuw %struct.CVodeBMemRec, ptr %19, i32 0, i32 11
  %21 = load ptr, ptr %20, align 8, !tbaa !136
  %22 = icmp ne ptr %21, null
  br i1 %22, label %23, label %28

23:                                               ; preds = %8
  %24 = load ptr, ptr %3, align 8, !tbaa !132
  %25 = getelementptr inbounds nuw %struct.CVodeBMemRec, ptr %24, i32 0, i32 11
  %26 = load ptr, ptr %25, align 8, !tbaa !136
  %27 = load ptr, ptr %3, align 8, !tbaa !132
  call void %26(ptr noundef %27)
  br label %28

28:                                               ; preds = %23, %8
  %29 = load ptr, ptr %3, align 8, !tbaa !132
  %30 = getelementptr inbounds nuw %struct.CVodeBMemRec, ptr %29, i32 0, i32 13
  %31 = load ptr, ptr %30, align 8, !tbaa !137
  %32 = icmp ne ptr %31, null
  br i1 %32, label %33, label %38

33:                                               ; preds = %28
  %34 = load ptr, ptr %3, align 8, !tbaa !132
  %35 = getelementptr inbounds nuw %struct.CVodeBMemRec, ptr %34, i32 0, i32 13
  %36 = load ptr, ptr %35, align 8, !tbaa !137
  %37 = load ptr, ptr %3, align 8, !tbaa !132
  call void %36(ptr noundef %37)
  br label %38

38:                                               ; preds = %33, %28
  %39 = load ptr, ptr %3, align 8, !tbaa !132
  %40 = getelementptr inbounds nuw %struct.CVodeBMemRec, ptr %39, i32 0, i32 15
  %41 = load ptr, ptr %40, align 8, !tbaa !138
  call void @N_VDestroy(ptr noundef %41)
  %42 = load ptr, ptr %3, align 8, !tbaa !132
  call void @free(ptr noundef %42) #5
  store ptr null, ptr %3, align 8, !tbaa !132
  br label %43

43:                                               ; preds = %38, %1
  call void @llvm.lifetime.end.p0(i64 8, ptr %4) #5
  call void @llvm.lifetime.end.p0(i64 8, ptr %3) #5
  ret void
}

; Function Attrs: nounwind uwtable
define void @CVodeAdjFree(ptr noundef %0) #0 {
  %2 = alloca ptr, align 8
  %3 = alloca ptr, align 8
  %4 = alloca ptr, align 8
  %5 = alloca i64, align 8
  %6 = alloca i32, align 4
  store ptr %0, ptr %2, align 8, !tbaa !3
  call void @llvm.lifetime.start.p0(i64 8, ptr %3) #5
  call void @llvm.lifetime.start.p0(i64 8, ptr %4) #5
  call void @llvm.lifetime.start.p0(i64 8, ptr %5) #5
  %7 = load ptr, ptr %2, align 8, !tbaa !3
  %8 = icmp eq ptr %7, null
  br i1 %8, label %9, label %10

9:                                                ; preds = %1
  store i32 1, ptr %6, align 4
  br label %79

10:                                               ; preds = %1
  %11 = load ptr, ptr %2, align 8, !tbaa !3
  store ptr %11, ptr %3, align 8, !tbaa !11
  %12 = load ptr, ptr %3, align 8, !tbaa !11
  %13 = getelementptr inbounds nuw %struct.CVodeMemRec, ptr %12, i32 0, i32 195
  %14 = load i32, ptr %13, align 8, !tbaa !53
  %15 = icmp ne i32 %14, 0
  br i1 %15, label %16, label %78

16:                                               ; preds = %10
  %17 = load ptr, ptr %3, align 8, !tbaa !11
  %18 = getelementptr inbounds nuw %struct.CVodeMemRec, ptr %17, i32 0, i32 194
  %19 = load ptr, ptr %18, align 8, !tbaa !15
  store ptr %19, ptr %4, align 8, !tbaa !13
  br label %20

20:                                               ; preds = %25, %16
  %21 = load ptr, ptr %4, align 8, !tbaa !13
  %22 = getelementptr inbounds nuw %struct.CVadjMemRec, ptr %21, i32 0, i32 9
  %23 = load ptr, ptr %22, align 8, !tbaa !24
  %24 = icmp ne ptr %23, null
  br i1 %24, label %25, label %28

25:                                               ; preds = %20
  %26 = load ptr, ptr %4, align 8, !tbaa !13
  %27 = getelementptr inbounds nuw %struct.CVadjMemRec, ptr %26, i32 0, i32 9
  call void @CVAckpntDelete(ptr noundef %27)
  br label %20, !llvm.loop !127

28:                                               ; preds = %20
  %29 = load ptr, ptr %4, align 8, !tbaa !13
  %30 = getelementptr inbounds nuw %struct.CVadjMemRec, ptr %29, i32 0, i32 20
  %31 = load i32, ptr %30, align 8, !tbaa !43
  %32 = icmp ne i32 %31, 0
  br i1 %32, label %33, label %38

33:                                               ; preds = %28
  %34 = load ptr, ptr %4, align 8, !tbaa !13
  %35 = getelementptr inbounds nuw %struct.CVadjMemRec, ptr %34, i32 0, i32 17
  %36 = load ptr, ptr %35, align 8, !tbaa !40
  %37 = load ptr, ptr %3, align 8, !tbaa !11
  call void %36(ptr noundef %37)
  br label %38

38:                                               ; preds = %33, %28
  store i64 0, ptr %5, align 8, !tbaa !7
  br label %39

39:                                               ; preds = %57, %38
  %40 = load i64, ptr %5, align 8, !tbaa !7
  %41 = load ptr, ptr %4, align 8, !tbaa !13
  %42 = getelementptr inbounds nuw %struct.CVadjMemRec, ptr %41, i32 0, i32 12
  %43 = load i64, ptr %42, align 8, !tbaa !32
  %44 = icmp sle i64 %40, %43
  br i1 %44, label %45, label %60

45:                                               ; preds = %39
  %46 = load ptr, ptr %4, align 8, !tbaa !13
  %47 = getelementptr inbounds nuw %struct.CVadjMemRec, ptr %46, i32 0, i32 13
  %48 = load ptr, ptr %47, align 8, !tbaa !33
  %49 = load i64, ptr %5, align 8, !tbaa !7
  %50 = getelementptr inbounds ptr, ptr %48, i64 %49
  %51 = load ptr, ptr %50, align 8, !tbaa !34
  call void @free(ptr noundef %51) #5
  %52 = load ptr, ptr %4, align 8, !tbaa !13
  %53 = getelementptr inbounds nuw %struct.CVadjMemRec, ptr %52, i32 0, i32 13
  %54 = load ptr, ptr %53, align 8, !tbaa !33
  %55 = load i64, ptr %5, align 8, !tbaa !7
  %56 = getelementptr inbounds ptr, ptr %54, i64 %55
  store ptr null, ptr %56, align 8, !tbaa !34
  br label %57

57:                                               ; preds = %45
  %58 = load i64, ptr %5, align 8, !tbaa !7
  %59 = add nsw i64 %58, 1
  store i64 %59, ptr %5, align 8, !tbaa !7
  br label %39, !llvm.loop !128

60:                                               ; preds = %39
  %61 = load ptr, ptr %4, align 8, !tbaa !13
  %62 = getelementptr inbounds nuw %struct.CVadjMemRec, ptr %61, i32 0, i32 13
  %63 = load ptr, ptr %62, align 8, !tbaa !33
  call void @free(ptr noundef %63) #5
  %64 = load ptr, ptr %4, align 8, !tbaa !13
  %65 = getelementptr inbounds nuw %struct.CVadjMemRec, ptr %64, i32 0, i32 13
  store ptr null, ptr %65, align 8, !tbaa !33
  br label %66

66:                                               ; preds = %71, %60
  %67 = load ptr, ptr %4, align 8, !tbaa !13
  %68 = getelementptr inbounds nuw %struct.CVadjMemRec, ptr %67, i32 0, i32 5
  %69 = load ptr, ptr %68, align 8, !tbaa !46
  %70 = icmp ne ptr %69, null
  br i1 %70, label %71, label %74

71:                                               ; preds = %66
  %72 = load ptr, ptr %4, align 8, !tbaa !13
  %73 = getelementptr inbounds nuw %struct.CVadjMemRec, ptr %72, i32 0, i32 5
  call void @CVAbckpbDelete(ptr noundef %73)
  br label %66, !llvm.loop !129

74:                                               ; preds = %66
  %75 = load ptr, ptr %4, align 8, !tbaa !13
  call void @free(ptr noundef %75) #5
  %76 = load ptr, ptr %3, align 8, !tbaa !11
  %77 = getelementptr inbounds nuw %struct.CVodeMemRec, ptr %76, i32 0, i32 194
  store ptr null, ptr %77, align 8, !tbaa !15
  br label %78

78:                                               ; preds = %74, %10
  store i32 0, ptr %6, align 4
  br label %79

79:                                               ; preds = %78, %9
  call void @llvm.lifetime.end.p0(i64 8, ptr %5) #5
  call void @llvm.lifetime.end.p0(i64 8, ptr %4) #5
  call void @llvm.lifetime.end.p0(i64 8, ptr %3) #5
  %80 = load i32, ptr %6, align 4
  switch i32 %80, label %82 [
    i32 0, label %81
    i32 1, label %81
  ]

81:                                               ; preds = %79, %79
  ret void

82:                                               ; preds = %79
  unreachable
}