; Function Attrs: nounwind uwtable
define void @CVodeAdjFree(ptr noundef %0) local_unnamed_addr #0 {
  %2 = alloca ptr, align 8
  %3 = icmp eq ptr %0, null
  br i1 %3, label %47, label %4

4:                                                ; preds = %1
  %5 = getelementptr inbounds nuw i8, ptr %0, i64 2200
  %6 = load i32, ptr %5, align 8, !tbaa !47
  %.not = icmp eq i32 %6, 0
  br i1 %.not, label %47, label %7

7:                                                ; preds = %4
  %8 = getelementptr inbounds nuw i8, ptr %0, i64 2192
  %9 = load ptr, ptr %8, align 8, !tbaa !3
  %10 = getelementptr inbounds nuw i8, ptr %9, i64 64
  %11 = load ptr, ptr %10, align 8, !tbaa !18
  %.not2226 = icmp eq ptr %11, null
  br i1 %.not2226, label %._crit_edge, label %.lr.ph

.lr.ph:                                           ; preds = %7, %.lr.ph
  tail call fastcc void @CVAckpntDelete(ptr noundef nonnull %10)
  %12 = load ptr, ptr %10, align 8, !tbaa !18
  %.not22 = icmp eq ptr %12, null
  br i1 %.not22, label %._crit_edge, label %.lr.ph, !llvm.loop !117

._crit_edge:                                      ; preds = %.lr.ph, %7
  %13 = getelementptr inbounds nuw i8, ptr %9, i64 152
  %14 = load i32, ptr %13, align 8, !tbaa !37
  %.not23 = icmp eq i32 %14, 0
  br i1 %.not23, label %18, label %15

15:                                               ; preds = %._crit_edge
  %16 = getelementptr inbounds nuw i8, ptr %9, i64 128
  %17 = load ptr, ptr %16, align 8, !tbaa !34
  tail call void %17(ptr noundef nonnull %0) #8
  br label %18

18:                                               ; preds = %15, %._crit_edge
  %19 = getelementptr inbounds nuw i8, ptr %9, i64 88
  %20 = load i64, ptr %19, align 8, !tbaa !26
  %.not2427 = icmp slt i64 %20, 0
  %.phi.trans.insert = getelementptr inbounds nuw i8, ptr %9, i64 96
  %.pre36 = load ptr, ptr %.phi.trans.insert, align 8, !tbaa !27
  br i1 %.not2427, label %._crit_edge31, label %.lr.ph30

.lr.ph30:                                         ; preds = %18, %.lr.ph30
  %21 = phi ptr [ %24, %.lr.ph30 ], [ %.pre36, %18 ]
  %.028 = phi i64 [ %26, %.lr.ph30 ], [ 0, %18 ]
  %22 = getelementptr inbounds nuw ptr, ptr %21, i64 %.028
  %23 = load ptr, ptr %22, align 8, !tbaa !28
  tail call void @free(ptr noundef %23) #8
  %24 = load ptr, ptr %.phi.trans.insert, align 8, !tbaa !27
  %25 = getelementptr inbounds nuw ptr, ptr %24, i64 %.028
  store ptr null, ptr %25, align 8, !tbaa !28
  %26 = add nuw nsw i64 %.028, 1
  %27 = load i64, ptr %19, align 8, !tbaa !26
  %.not24.not = icmp slt i64 %.028, %27
  br i1 %.not24.not, label %.lr.ph30, label %._crit_edge31, !llvm.loop !118

._crit_edge31:                                    ; preds = %.lr.ph30, %18
  %28 = phi ptr [ %.pre36, %18 ], [ %24, %.lr.ph30 ]
  %29 = getelementptr inbounds nuw i8, ptr %9, i64 96
  tail call void @free(ptr noundef %28) #8
  store ptr null, ptr %29, align 8, !tbaa !27
  %30 = getelementptr inbounds nuw i8, ptr %9, i64 32
  %31 = load ptr, ptr %30, align 8, !tbaa !40
  %.not2532 = icmp eq ptr %31, null
  br i1 %.not2532, label %._crit_edge35, label %.lr.ph34

.lr.ph34:                                         ; preds = %._crit_edge31, %CVAbckpbDelete.exit
  %32 = phi ptr [ %46, %CVAbckpbDelete.exit ], [ %31, %._crit_edge31 ]
  call void @llvm.lifetime.start.p0(i64 8, ptr nonnull %2) #8
  %33 = getelementptr inbounds nuw i8, ptr %32, i64 120
  %34 = load ptr, ptr %33, align 8, !tbaa !119
  store ptr %34, ptr %30, align 8, !tbaa !122
  %35 = getelementptr inbounds nuw i8, ptr %32, i64 16
  %36 = load ptr, ptr %35, align 8, !tbaa !123
  store ptr %36, ptr %2, align 8, !tbaa !124
  call void @CVodeFree(ptr noundef nonnull %2) #8
  %37 = getelementptr inbounds nuw i8, ptr %32, i64 80
  %38 = load ptr, ptr %37, align 8, !tbaa !125
  %.not15.i = icmp eq ptr %38, null
  br i1 %.not15.i, label %40, label %39

39:                                               ; preds = %.lr.ph34
  call void %38(ptr noundef nonnull %32) #8
  br label %40

40:                                               ; preds = %39, %.lr.ph34
  %41 = getelementptr inbounds nuw i8, ptr %32, i64 96
  %42 = load ptr, ptr %41, align 8, !tbaa !126
  %.not16.i = icmp eq ptr %42, null
  br i1 %.not16.i, label %CVAbckpbDelete.exit, label %43

43:                                               ; preds = %40
  call void %42(ptr noundef nonnull %32) #8
  br label %CVAbckpbDelete.exit

CVAbckpbDelete.exit:                              ; preds = %40, %43
  %44 = getelementptr inbounds nuw i8, ptr %32, i64 112
  %45 = load ptr, ptr %44, align 8, !tbaa !127
  call void @N_VDestroy(ptr noundef %45) #8
  call void @free(ptr noundef nonnull %32) #8
  call void @llvm.lifetime.end.p0(i64 8, ptr nonnull %2) #8
  %46 = load ptr, ptr %30, align 8, !tbaa !40
  %.not25 = icmp eq ptr %46, null
  br i1 %.not25, label %._crit_edge35, label %.lr.ph34, !llvm.loop !128

._crit_edge35:                                    ; preds = %CVAbckpbDelete.exit, %._crit_edge31
  call void @free(ptr noundef nonnull %9) #8
  store ptr null, ptr %8, align 8, !tbaa !3
  br label %47

47:                                               ; preds = %4, %._crit_edge35, %1
  ret void
}